target datalayout = "e-m:e-p270:32:32-p271:32:32-p272:64:64-i64:64-i128:128-f80:128-n8:16:32:64-S128"
target triple = "x86_64-pc-linux-gnu"

%struct.X509_crl_st = type { %struct.X509_crl_info_st, %struct.X509_algor_st, %struct.asn1_string_st, %struct.CRYPTO_REF_COUNT, i32, ptr, ptr, i32, i32, ptr, ptr, ptr, [20 x i8], ptr, ptr, ptr, ptr, ptr }
%struct.X509_crl_info_st = type { ptr, %struct.X509_algor_st, ptr, ptr, ptr, ptr, ptr, %struct.ASN1_ENCODING_st }
%struct.ASN1_ENCODING_st = type { ptr, i64, i32 }
%struct.X509_algor_st = type { ptr, ptr }
%struct.asn1_string_st = type { i32, i32, ptr, i64 }
%struct.CRYPTO_REF_COUNT = type { i32 }

; Function Attrs: nounwind uwtable
define i32 @X509_CRL_set_issuer_name(ptr noundef %0, ptr noundef %1) #0 {
  %3 = alloca i32, align 4
  %4 = alloca ptr, align 8
  %5 = alloca ptr, align 8
  store ptr %0, ptr %4, align 8, !tbaa !3
  store ptr %1, ptr %5, align 8, !tbaa !31
  %6 = load ptr, ptr %4, align 8, !tbaa !3
  %7 = icmp eq ptr %6, null
  br i1 %7, label %8, label %9

8:                                                ; preds = %2
  store i32 0, ptr %3, align 4
  br label %22

9:                                                ; preds = %2
  %10 = load ptr, ptr %4, align 8, !tbaa !3
  %11 = getelementptr inbounds nuw %struct.X509_crl_st, ptr %10, i32 0, i32 0
  %12 = getelementptr inbounds nuw %struct.X509_crl_info_st, ptr %11, i32 0, i32 2
  %13 = load ptr, ptr %5, align 8, !tbaa !31
  %14 = call i32 @X509_NAME_set(ptr noundef %12, ptr noundef %13)
  %15 = icmp ne i32 %14, 0
  br i1 %15, label %17, label %16

16:                                               ; preds = %9
  store i32 0, ptr %3, align 4
  br label %22

17:                                               ; preds = %9
  %18 = load ptr, ptr %4, align 8, !tbaa !3
  %19 = getelementptr inbounds nuw %struct.X509_crl_st, ptr %18, i32 0, i32 0
  %20 = getelementptr inbounds nuw %struct.X509_crl_info_st, ptr %19, i32 0, i32 7
  %21 = getelementptr inbounds nuw %struct.ASN1_ENCODING_st, ptr %20, i32 0, i32 2
  store i32 1, ptr %21, align 8, !tbaa !30
  store i32 1, ptr %3, align 4
  br label %22

22:                                               ; preds = %17, %16, %8
  %23 = load i32, ptr %3, align 4
  ret i32 %23
}