; Function Attrs: nounwind uwtable
define range(i32 0, 2) i32 @X509_CRL_set_issuer_name(ptr noundef %0, ptr noundef %1) local_unnamed_addr #0 {
  %3 = icmp eq ptr %0, null
  br i1 %3, label %9, label %4

4:                                                ; preds = %2
  %5 = getelementptr inbounds nuw i8, ptr %0, i64 24
  %6 = tail call i32 @X509_NAME_set(ptr noundef nonnull %5, ptr noundef %1) #6
  %.not = icmp eq i32 %6, 0
  br i1 %.not, label %9, label %7

7:                                                ; preds = %4
  %8 = getelementptr inbounds nuw i8, ptr %0, i64 80
  store i32 1, ptr %8, align 8, !tbaa !27
  br label %9

9:                                                ; preds = %4, %2, %7
  %.0 = phi i32 [ 1, %7 ], [ 0, %2 ], [ 0, %4 ]
  ret i32 %.0
}